target datalayout = "e-m:e-p270:32:32-p271:32:32-p272:64:64-i64:64-i128:128-f80:128-n8:16:32:64-S128"
target triple = "x86_64-pc-linux-gnu"

%union.pthread_mutex_t = type { %struct.__pthread_mutex_s }
%struct.__pthread_mutex_s = type { i32, i32, i32, i32, i32, i16, i16, %struct.__pthread_internal_list }
%struct.__pthread_internal_list = type { ptr, ptr }
%struct.slurmdbd_conn_t = type { ptr, ptr, %union.pthread_mutex_t, ptr, ptr }
%struct.persist_conn_t = type { ptr, i32, i32, i8, ptr, ptr, ptr, i64, i16, i32, i16, i8, i32, i32, ptr, i16, ptr, i64, i32, ptr, %struct.slurm_trigger_callbacks_t, i16 }
%struct.slurm_trigger_callbacks_t = type { ptr, ptr, ptr, ptr, ptr }
%struct.persist_msg_t = type { ptr, ptr, i16 }
%struct.dbd_list_msg_t = type { ptr, i32 }

@.str.14 = private unnamed_addr constant [32 x i8] c"Request didn't affect anything\0A\00", align 1
@.str.15 = private unnamed_addr constant [31 x i8] c"Request didn't affect anything\00", align 1
@.str.16 = private unnamed_addr constant [11 x i8] c"CONN:%d %s\00", align 1
@.str.17 = private unnamed_addr constant [57 x i8] c"Your user doesn't have privilege to perform this action\0A\00", align 1
@.str.18 = private unnamed_addr constant [37 x i8] c"Something was wrong with your query\0A\00", align 1
@.str.19 = private unnamed_addr constant [30 x i8] c"QOS Preemption loop detected\0A\00", align 1
@.str.20 = private unnamed_addr constant [15 x i8] c"Unknown issue\0A\00", align 1
@.str.21 = private unnamed_addr constant [56 x i8] c"Your user doesn't have privilege to perform this action\00", align 1
@.str.22 = private unnamed_addr constant [36 x i8] c"Something was wrong with your query\00", align 1
@.str.23 = private unnamed_addr constant [29 x i8] c"QOS Preemption loop detected\00", align 1
@.str.24 = private unnamed_addr constant [14 x i8] c"Unknown issue\00", align 1
@.str.34 = private unnamed_addr constant [31 x i8] c"DBD_ADD_QOS: called in CONN %d\00", align 1
@.str.35 = private unnamed_addr constant [19 x i8] c"Failed to add qos.\00", align 1

; Function Attrs: nounwind uwtable
define internal ptr @_internal_rc_to_str(i32 noundef %0, i32 noundef %1, i1 noundef zeroext %2) #0 {
  %4 = alloca ptr, align 8
  %5 = alloca i32, align 4
  %6 = alloca i32, align 4
  %7 = alloca i8, align 1
  %8 = alloca ptr, align 8
  %9 = alloca i32, align 4
  store i32 %0, ptr %5, align 4
  store i32 %1, ptr %6, align 4
  %10 = zext i1 %2 to i8
  store i8 %10, ptr %7, align 1
  call void @llvm.lifetime.start.p0(i64 8, ptr %8) #8
  store ptr null, ptr %8, align 8
  %11 = load i32, ptr %5, align 4
  %12 = icmp eq i32 %11, 1900
  br i1 %12, label %13, label %32

13:                                               ; preds = %3
  %14 = load i8, ptr %7, align 1, !range !8, !noundef !9
  %15 = trunc i8 %14 to i1
  br i1 %15, label %16, label %17

16:                                               ; preds = %13
  store ptr @.str.14, ptr %8, align 8
  br label %18

17:                                               ; preds = %13
  store ptr @.str.15, ptr %8, align 8
  br label %18

18:                                               ; preds = %17, %16
  br label %19

19:                                               ; preds = %18
  br label %20

20:                                               ; preds = %19
  %21 = call i32 @get_log_level()
  %22 = icmp sge i32 %21, 6
  br i1 %22, label %23, label %26

23:                                               ; preds = %20
  %24 = load i32, ptr %6, align 4
  %25 = load ptr, ptr %8, align 8
  call void (i32, ptr, ...) @log_var(i32 noundef 6, ptr noundef @.str.16, i32 noundef %24, ptr noundef %25)
  br label %26

26:                                               ; preds = %23, %20
  br label %27

27:                                               ; preds = %26
  br label %28

28:                                               ; preds = %27
  br label %29

29:                                               ; preds = %28
  br label %30

30:                                               ; preds = %29
  %31 = load ptr, ptr %8, align 8
  store ptr %31, ptr %4, align 8
  store i32 1, ptr %9, align 4
  br label %96

32:                                               ; preds = %3
  %33 = load i8, ptr %7, align 1, !range !8, !noundef !9
  %34 = trunc i8 %33 to i1
  br i1 %34, label %35, label %63

35:                                               ; preds = %32
  %36 = load i32, ptr %5, align 4
  %37 = icmp eq i32 %36, 2002
  br i1 %37, label %38, label %39

38:                                               ; preds = %35
  store ptr @.str.17, ptr %8, align 8
  br label %62

39:                                               ; preds = %35
  %40 = load i32, ptr %5, align 4
  %41 = icmp eq i32 %40, -1
  br i1 %41, label %42, label %43

42:                                               ; preds = %39
  store ptr @.str.18, ptr %8, align 8
  br label %61

43:                                               ; preds = %39
  %44 = load i32, ptr %5, align 4
  %45 = icmp eq i32 %44, 7000
  br i1 %45, label %46, label %49

46:                                               ; preds = %43
  %47 = load i32, ptr %5, align 4
  %48 = call ptr @slurm_strerror(i32 noundef %47)
  store ptr %48, ptr %8, align 8
  br label %60

49:                                               ; preds = %43
  %50 = load i32, ptr %5, align 4
  %51 = icmp eq i32 %50, 2067
  br i1 %51, label %52, label %53

52:                                               ; preds = %49
  store ptr @.str.19, ptr %8, align 8
  br label %59

53:                                               ; preds = %49
  %54 = load i32, ptr %5, align 4
  %55 = call ptr @slurm_strerror(i32 noundef %54)
  store ptr %55, ptr %8, align 8
  %56 = icmp ne ptr %55, null
  br i1 %56, label %58, label %57

57:                                               ; preds = %53
  store ptr @.str.20, ptr %8, align 8
  br label %58

58:                                               ; preds = %57, %53
  br label %59

59:                                               ; preds = %58, %52
  br label %60

60:                                               ; preds = %59, %46
  br label %61

61:                                               ; preds = %60, %42
  br label %62

62:                                               ; preds = %61, %38
  br label %91

63:                                               ; preds = %32
  %64 = load i32, ptr %5, align 4
  %65 = icmp eq i32 %64, 2002
  br i1 %65, label %66, label %67

66:                                               ; preds = %63
  store ptr @.str.21, ptr %8, align 8
  br label %90

67:                                               ; preds = %63
  %68 = load i32, ptr %5, align 4
  %69 = icmp eq i32 %68, -1
  br i1 %69, label %70, label %71

70:                                               ; preds = %67
  store ptr @.str.22, ptr %8, align 8
  br label %89

71:                                               ; preds = %67
  %72 = load i32, ptr %5, align 4
  %73 = icmp eq i32 %72, 7000
  br i1 %73, label %74, label %77

74:                                               ; preds = %71
  %75 = load i32, ptr %5, align 4
  %76 = call ptr @slurm_strerror(i32 noundef %75)
  store ptr %76, ptr %8, align 8
  br label %88

77:                                               ; preds = %71
  %78 = load i32, ptr %5, align 4
  %79 = icmp eq i32 %78, 2067
  br i1 %79, label %80, label %81

80:                                               ; preds = %77
  store ptr @.str.23, ptr %8, align 8
  br label %87

81:                                               ; preds = %77
  %82 = load i32, ptr %5, align 4
  %83 = call ptr @slurm_strerror(i32 noundef %82)
  store ptr %83, ptr %8, align 8
  %84 = icmp ne ptr %83, null
  br i1 %84, label %86, label %85

85:                                               ; preds = %81
  store ptr @.str.24, ptr %8, align 8
  br label %86

86:                                               ; preds = %85, %81
  br label %87

87:                                               ; preds = %86, %80
  br label %88

88:                                               ; preds = %87, %74
  br label %89

89:                                               ; preds = %88, %70
  br label %90

90:                                               ; preds = %89, %66
  br label %91

91:                                               ; preds = %90, %62
  %92 = load i32, ptr %6, align 4
  %93 = load ptr, ptr %8, align 8
  %94 = call i32 (ptr, ...) @error(ptr noundef @.str.16, i32 noundef %92, ptr noundef %93)
  %95 = load ptr, ptr %8, align 8
  store ptr %95, ptr %4, align 8
  store i32 1, ptr %9, align 4
  br label %96

96:                                               ; preds = %91, %30
  call void @llvm.lifetime.end.p0(i64 8, ptr %8) #8
  %97 = load ptr, ptr %4, align 8
  ret ptr %97
}

; Function Attrs: nounwind uwtable
define internal i32 @_add_qos(ptr noundef %0, ptr noundef %1, ptr noundef %2) #0 {
  %4 = alloca ptr, align 8
  %5 = alloca ptr, align 8
  %6 = alloca ptr, align 8
  %7 = alloca i32, align 4
  %8 = alloca ptr, align 8
  %9 = alloca ptr, align 8
  store ptr %0, ptr %4, align 8
  store ptr %1, ptr %5, align 8
  store ptr %2, ptr %6, align 8
  call void @llvm.lifetime.start.p0(i64 4, ptr %7) #8
  store i32 0, ptr %7, align 4
  call void @llvm.lifetime.start.p0(i64 8, ptr %8) #8
  %10 = load ptr, ptr %5, align 8
  %11 = getelementptr inbounds nuw %struct.persist_msg_t, ptr %10, i32 0, i32 1
  %12 = load ptr, ptr %11, align 8
  store ptr %12, ptr %8, align 8
  call void @llvm.lifetime.start.p0(i64 8, ptr %9) #8
  store ptr null, ptr %9, align 8
  br label %13

13:                                               ; preds = %3
  br label %14

14:                                               ; preds = %13
  %15 = call i32 @get_log_level()
  %16 = icmp sge i32 %15, 6
  br i1 %16, label %17, label %23

17:                                               ; preds = %14
  %18 = load ptr, ptr %4, align 8
  %19 = getelementptr inbounds nuw %struct.slurmdbd_conn_t, ptr %18, i32 0, i32 0
  %20 = load ptr, ptr %19, align 8
  %21 = getelementptr inbounds nuw %struct.persist_conn_t, ptr %20, i32 0, i32 9
  %22 = load i32, ptr %21, align 4
  call void (i32, ptr, ...) @log_var(i32 noundef 6, ptr noundef @.str.34, i32 noundef %22)
  br label %23

23:                                               ; preds = %17, %14
  br label %24

24:                                               ; preds = %23
  br label %25

25:                                               ; preds = %24
  br label %26

26:                                               ; preds = %25
  br label %27

27:                                               ; preds = %26
  %28 = load ptr, ptr %4, align 8
  %29 = getelementptr inbounds nuw %struct.slurmdbd_conn_t, ptr %28, i32 0, i32 3
  %30 = load ptr, ptr %29, align 8
  %31 = load ptr, ptr %4, align 8
  %32 = getelementptr inbounds nuw %struct.slurmdbd_conn_t, ptr %31, i32 0, i32 0
  %33 = load ptr, ptr %32, align 8
  %34 = getelementptr inbounds nuw %struct.persist_conn_t, ptr %33, i32 0, i32 1
  %35 = load i32, ptr %34, align 8
  %36 = load ptr, ptr %8, align 8
  %37 = getelementptr inbounds nuw %struct.dbd_list_msg_t, ptr %36, i32 0, i32 0
  %38 = load ptr, ptr %37, align 8
  %39 = call i32 @acct_storage_g_add_qos(ptr noundef %30, i32 noundef %35, ptr noundef %38)
  store i32 %39, ptr %7, align 4
  %40 = load i32, ptr %7, align 4
  %41 = icmp eq i32 %40, 2002
  br i1 %41, label %42, label %50

42:                                               ; preds = %27
  %43 = load i32, ptr %7, align 4
  %44 = load ptr, ptr %4, align 8
  %45 = getelementptr inbounds nuw %struct.slurmdbd_conn_t, ptr %44, i32 0, i32 0
  %46 = load ptr, ptr %45, align 8
  %47 = getelementptr inbounds nuw %struct.persist_conn_t, ptr %46, i32 0, i32 9
  %48 = load i32, ptr %47, align 4
  %49 = call ptr @_internal_rc_to_str(i32 noundef %43, i32 noundef %48, i1 noundef zeroext false)
  store ptr %49, ptr %9, align 8
  br label %55

50:                                               ; preds = %27
  %51 = load i32, ptr %7, align 4
  %52 = icmp ne i32 %51, 0
  br i1 %52, label %53, label %54

53:                                               ; preds = %50
  store ptr @.str.35, ptr %9, align 8
  br label %54

54:                                               ; preds = %53, %50
  br label %55

55:                                               ; preds = %54, %42
  %56 = load ptr, ptr %4, align 8
  %57 = getelementptr inbounds nuw %struct.slurmdbd_conn_t, ptr %56, i32 0, i32 0
  %58 = load ptr, ptr %57, align 8
  %59 = load i32, ptr %7, align 4
  %60 = load ptr, ptr %9, align 8
  %61 = call ptr @slurm_persist_make_rc_msg(ptr noundef %58, i32 noundef %59, ptr noundef %60, i16 noundef zeroext 1447)
  %62 = load ptr, ptr %6, align 8
  store ptr %61, ptr %62, align 8
  %63 = load i32, ptr %7, align 4
  call void @llvm.lifetime.end.p0(i64 8, ptr %9) #8
  call void @llvm.lifetime.end.p0(i64 8, ptr %8) #8
  call void @llvm.lifetime.end.p0(i64 4, ptr %7) #8
  ret i32 %63
}